target datalayout = "e-m:e-p270:32:32-p271:32:32-p272:64:64-i64:64-i128:128-f80:128-n8:16:32:64-S128"
target triple = "x86_64-pc-linux-gnu"

; Function Attrs: nounwind uwtable
define internal i32 @pg_mule2wchar_with_len(ptr noundef %0, ptr noundef %1, i32 noundef %2) #1 {
  %4 = alloca ptr, align 8
  %5 = alloca ptr, align 8
  %6 = alloca i32, align 4
  %7 = alloca i32, align 4
  store ptr %0, ptr %4, align 8
  store ptr %1, ptr %5, align 8
  store i32 %2, ptr %6, align 4
  call void @llvm.lifetime.start.p0(i64 4, ptr %7) #7
  store i32 0, ptr %7, align 4
  br label %8

8:                                                ; preds = %165, %3
  %9 = load i32, ptr %6, align 4
  %10 = icmp sgt i32 %9, 0
  br i1 %10, label %11, label %16

11:                                               ; preds = %8
  %12 = load ptr, ptr %4, align 8
  %13 = load i8, ptr %12, align 1
  %14 = zext i8 %13 to i32
  %15 = icmp ne i32 %14, 0
  br label %16

16:                                               ; preds = %11, %8
  %17 = phi i1 [ false, %8 ], [ %15, %11 ]
  br i1 %17, label %18, label %170

18:                                               ; preds = %16
  %19 = load ptr, ptr %4, align 8
  %20 = load i8, ptr %19, align 1
  %21 = zext i8 %20 to i32
  %22 = icmp sge i32 %21, 129
  br i1 %22, label %23, label %47

23:                                               ; preds = %18
  %24 = load ptr, ptr %4, align 8
  %25 = load i8, ptr %24, align 1
  %26 = zext i8 %25 to i32
  %27 = icmp sle i32 %26, 141
  br i1 %27, label %28, label %47

28:                                               ; preds = %23
  %29 = load i32, ptr %6, align 4
  %30 = icmp sge i32 %29, 2
  br i1 %30, label %31, label %47

31:                                               ; preds = %28
  %32 = load ptr, ptr %4, align 8
  %33 = getelementptr inbounds nuw i8, ptr %32, i32 1
  store ptr %33, ptr %4, align 8
  %34 = load i8, ptr %32, align 1
  %35 = zext i8 %34 to i32
  %36 = shl i32 %35, 16
  %37 = load ptr, ptr %5, align 8
  store i32 %36, ptr %37, align 4
  %38 = load ptr, ptr %4, align 8
  %39 = getelementptr inbounds nuw i8, ptr %38, i32 1
  store ptr %39, ptr %4, align 8
  %40 = load i8, ptr %38, align 1
  %41 = zext i8 %40 to i32
  %42 = load ptr, ptr %5, align 8
  %43 = load i32, ptr %42, align 4
  %44 = or i32 %43, %41
  store i32 %44, ptr %42, align 4
  %45 = load i32, ptr %6, align 4
  %46 = sub i32 %45, 2
  store i32 %46, ptr %6, align 4
  br label %165

47:                                               ; preds = %28, %23, %18
  %48 = load ptr, ptr %4, align 8
  %49 = load i8, ptr %48, align 1
  %50 = zext i8 %49 to i32
  %51 = icmp eq i32 %50, 154
  br i1 %51, label %57, label %52

52:                                               ; preds = %47
  %53 = load ptr, ptr %4, align 8
  %54 = load i8, ptr %53, align 1
  %55 = zext i8 %54 to i32
  %56 = icmp eq i32 %55, 155
  br i1 %56, label %57, label %78

57:                                               ; preds = %52, %47
  %58 = load i32, ptr %6, align 4
  %59 = icmp sge i32 %58, 3
  br i1 %59, label %60, label %78

60:                                               ; preds = %57
  %61 = load ptr, ptr %4, align 8
  %62 = getelementptr inbounds nuw i8, ptr %61, i32 1
  store ptr %62, ptr %4, align 8
  %63 = load ptr, ptr %4, align 8
  %64 = getelementptr inbounds nuw i8, ptr %63, i32 1
  store ptr %64, ptr %4, align 8
  %65 = load i8, ptr %63, align 1
  %66 = zext i8 %65 to i32
  %67 = shl i32 %66, 16
  %68 = load ptr, ptr %5, align 8
  store i32 %67, ptr %68, align 4
  %69 = load ptr, ptr %4, align 8
  %70 = getelementptr inbounds nuw i8, ptr %69, i32 1
  store ptr %70, ptr %4, align 8
  %71 = load i8, ptr %69, align 1
  %72 = zext i8 %71 to i32
  %73 = load ptr, ptr %5, align 8
  %74 = load i32, ptr %73, align 4
  %75 = or i32 %74, %72
  store i32 %75, ptr %73, align 4
  %76 = load i32, ptr %6, align 4
  %77 = sub i32 %76, 3
  store i32 %77, ptr %6, align 4
  br label %164

78:                                               ; preds = %57, %52
  %79 = load ptr, ptr %4, align 8
  %80 = load i8, ptr %79, align 1
  %81 = zext i8 %80 to i32
  %82 = icmp sge i32 %81, 144
  br i1 %82, label %83, label %115

83:                                               ; preds = %78
  %84 = load ptr, ptr %4, align 8
  %85 = load i8, ptr %84, align 1
  %86 = zext i8 %85 to i32
  %87 = icmp sle i32 %86, 153
  br i1 %87, label %88, label %115

88:                                               ; preds = %83
  %89 = load i32, ptr %6, align 4
  %90 = icmp sge i32 %89, 3
  br i1 %90, label %91, label %115

91:                                               ; preds = %88
  %92 = load ptr, ptr %4, align 8
  %93 = getelementptr inbounds nuw i8, ptr %92, i32 1
  store ptr %93, ptr %4, align 8
  %94 = load i8, ptr %92, align 1
  %95 = zext i8 %94 to i32
  %96 = shl i32 %95, 16
  %97 = load ptr, ptr %5, align 8
  store i32 %96, ptr %97, align 4
  %98 = load ptr, ptr %4, align 8
  %99 = getelementptr inbounds nuw i8, ptr %98, i32 1
  store ptr %99, ptr %4, align 8
  %100 = load i8, ptr %98, align 1
  %101 = zext i8 %100 to i32
  %102 = shl i32 %101, 8
  %103 = load ptr, ptr %5, align 8
  %104 = load i32, ptr %103, align 4
  %105 = or i32 %104, %102
  store i32 %105, ptr %103, align 4
  %106 = load ptr, ptr %4, align 8
  %107 = getelementptr inbounds nuw i8, ptr %106, i32 1
  store ptr %107, ptr %4, align 8
  %108 = load i8, ptr %106, align 1
  %109 = zext i8 %108 to i32
  %110 = load ptr, ptr %5, align 8
  %111 = load i32, ptr %110, align 4
  %112 = or i32 %111, %109
  store i32 %112, ptr %110, align 4
  %113 = load i32, ptr %6, align 4
  %114 = sub i32 %113, 3
  store i32 %114, ptr %6, align 4
  br label %163

115:                                              ; preds = %88, %83, %78
  %116 = load ptr, ptr %4, align 8
  %117 = load i8, ptr %116, align 1
  %118 = zext i8 %117 to i32
  %119 = icmp eq i32 %118, 156
  br i1 %119, label %125, label %120

120:                                              ; preds = %115
  %121 = load ptr, ptr %4, align 8
  %122 = load i8, ptr %121, align 1
  %123 = zext i8 %122 to i32
  %124 = icmp eq i32 %123, 157
  br i1 %124, label %125, label %154

125:                                              ; preds = %120, %115
  %126 = load i32, ptr %6, align 4
  %127 = icmp sge i32 %126, 4
  br i1 %127, label %128, label %154

128:                                              ; preds = %125
  %129 = load ptr, ptr %4, align 8
  %130 = getelementptr inbounds nuw i8, ptr %129, i32 1
  store ptr %130, ptr %4, align 8
  %131 = load ptr, ptr %4, align 8
  %132 = getelementptr inbounds nuw i8, ptr %131, i32 1
  store ptr %132, ptr %4, align 8
  %133 = load i8, ptr %131, align 1
  %134 = zext i8 %133 to i32
  %135 = shl i32 %134, 16
  %136 = load ptr, ptr %5, align 8
  store i32 %135, ptr %136, align 4
  %137 = load ptr, ptr %4, align 8
  %138 = getelementptr inbounds nuw i8, ptr %137, i32 1
  store ptr %138, ptr %4, align 8
  %139 = load i8, ptr %137, align 1
  %140 = zext i8 %139 to i32
  %141 = shl i32 %140, 8
  %142 = load ptr, ptr %5, align 8
  %143 = load i32, ptr %142, align 4
  %144 = or i32 %143, %141
  store i32 %144, ptr %142, align 4
  %145 = load ptr, ptr %4, align 8
  %146 = getelementptr inbounds nuw i8, ptr %145, i32 1
  store ptr %146, ptr %4, align 8
  %147 = load i8, ptr %145, align 1
  %148 = zext i8 %147 to i32
  %149 = load ptr, ptr %5, align 8
  %150 = load i32, ptr %149, align 4
  %151 = or i32 %150, %148
  store i32 %151, ptr %149, align 4
  %152 = load i32, ptr %6, align 4
  %153 = sub i32 %152, 4
  store i32 %153, ptr %6, align 4
  br label %162

154:                                              ; preds = %125, %120
  %155 = load ptr, ptr %4, align 8
  %156 = getelementptr inbounds nuw i8, ptr %155, i32 1
  store ptr %156, ptr %4, align 8
  %157 = load i8, ptr %155, align 1
  %158 = zext i8 %157 to i32
  %159 = load ptr, ptr %5, align 8
  store i32 %158, ptr %159, align 4
  %160 = load i32, ptr %6, align 4
  %161 = add i32 %160, -1
  store i32 %161, ptr %6, align 4
  br label %162

162:                                              ; preds = %154, %128
  br label %163

163:                                              ; preds = %162, %91
  br label %164

164:                                              ; preds = %163, %60
  br label %165

165:                                              ; preds = %164, %31
  %166 = load ptr, ptr %5, align 8
  %167 = getelementptr inbounds nuw i32, ptr %166, i32 1
  store ptr %167, ptr %5, align 8
  %168 = load i32, ptr %7, align 4
  %169 = add i32 %168, 1
  store i32 %169, ptr %7, align 4
  br label %8, !llvm.loop !18

170:                                              ; preds = %16
  %171 = load ptr, ptr %5, align 8
  store i32 0, ptr %171, align 4
  %172 = load i32, ptr %7, align 4
  call void @llvm.lifetime.end.p0(i64 4, ptr %7) #7
  ret i32 %172
}