; Function Attrs: nofree norecurse nosync nounwind memory(argmem: readwrite) uwtable
define internal i32 @pg_mule2wchar_with_len(ptr noundef readonly captures(none) %0, ptr noundef writeonly captures(none) %1, i32 noundef %2) #2 {
  %4 = icmp sgt i32 %2, 0
  br i1 %4, label %.lr.ph, label %.critedge

.lr.ph:                                           ; preds = %3, %73
  %.077 = phi i32 [ %76, %73 ], [ 0, %3 ]
  %.05776 = phi i32 [ %74, %73 ], [ %2, %3 ]
  %.05875 = phi ptr [ %75, %73 ], [ %1, %3 ]
  %.05974 = phi ptr [ %.160, %73 ], [ %0, %3 ]
  %5 = load i8, ptr %.05974, align 1
  %6 = zext i8 %5 to i32
  %.not = icmp eq i8 %5, 0
  br i1 %.not, label %.critedge, label %7

7:                                                ; preds = %.lr.ph
  %8 = icmp ugt i8 %5, -128
  br i1 %8, label %9, label %.thread72

9:                                                ; preds = %7
  %10 = icmp samesign ult i8 %5, -114
  %11 = icmp ne i32 %.05776, 1
  %or.cond = and i1 %11, %10
  br i1 %or.cond, label %12, label %19

12:                                               ; preds = %9
  %13 = getelementptr inbounds nuw i8, ptr %.05974, i64 1
  %14 = shl nuw nsw i32 %6, 16
  store i32 %14, ptr %.05875, align 4
  %15 = getelementptr inbounds nuw i8, ptr %.05974, i64 2
  %16 = load i8, ptr %13, align 1
  %17 = zext i8 %16 to i32
  %18 = or disjoint i32 %14, %17
  br label %73

19:                                               ; preds = %9
  %20 = icmp eq i8 %5, -102
  br i1 %20, label %24, label %21

21:                                               ; preds = %19
  %22 = icmp eq i8 %5, -101
  %23 = icmp samesign ugt i32 %.05776, 2
  %or.cond3 = and i1 %23, %22
  br i1 %or.cond3, label %25, label %35

24:                                               ; preds = %19
  %.old2 = icmp samesign ugt i32 %.05776, 2
  br i1 %.old2, label %25, label %.thread72

25:                                               ; preds = %21, %24
  %26 = getelementptr inbounds nuw i8, ptr %.05974, i64 1
  %27 = getelementptr inbounds nuw i8, ptr %.05974, i64 2
  %28 = load i8, ptr %26, align 1
  %29 = zext i8 %28 to i32
  %30 = shl nuw nsw i32 %29, 16
  store i32 %30, ptr %.05875, align 4
  %31 = getelementptr inbounds nuw i8, ptr %.05974, i64 3
  %32 = load i8, ptr %27, align 1
  %33 = zext i8 %32 to i32
  %34 = or disjoint i32 %30, %33
  br label %73

35:                                               ; preds = %21
  %36 = icmp samesign ugt i8 %5, -113
  br i1 %36, label %37, label %.thread72

37:                                               ; preds = %35
  %38 = icmp samesign ult i8 %5, -102
  %or.cond6 = and i1 %23, %38
  br i1 %or.cond6, label %39, label %51

39:                                               ; preds = %37
  %40 = getelementptr inbounds nuw i8, ptr %.05974, i64 1
  %41 = shl nuw nsw i32 %6, 16
  store i32 %41, ptr %.05875, align 4
  %42 = getelementptr inbounds nuw i8, ptr %.05974, i64 2
  %43 = load i8, ptr %40, align 1
  %44 = zext i8 %43 to i32
  %45 = shl nuw nsw i32 %44, 8
  %46 = or disjoint i32 %45, %41
  store i32 %46, ptr %.05875, align 4
  %47 = getelementptr inbounds nuw i8, ptr %.05974, i64 3
  %48 = load i8, ptr %42, align 1
  %49 = zext i8 %48 to i32
  %50 = or disjoint i32 %46, %49
  br label %73

51:                                               ; preds = %37
  %52 = icmp eq i8 %5, -100
  br i1 %52, label %56, label %53

53:                                               ; preds = %51
  %54 = icmp eq i8 %5, -99
  %55 = icmp samesign ugt i32 %.05776, 3
  %or.cond9 = and i1 %55, %54
  br i1 %or.cond9, label %57, label %.thread72

56:                                               ; preds = %51
  %.old8 = icmp samesign ugt i32 %.05776, 3
  br i1 %.old8, label %57, label %.thread72

57:                                               ; preds = %53, %56
  %58 = getelementptr inbounds nuw i8, ptr %.05974, i64 1
  %59 = getelementptr inbounds nuw i8, ptr %.05974, i64 2
  %60 = load i8, ptr %58, align 1
  %61 = zext i8 %60 to i32
  %62 = shl nuw nsw i32 %61, 16
  store i32 %62, ptr %.05875, align 4
  %63 = getelementptr inbounds nuw i8, ptr %.05974, i64 3
  %64 = load i8, ptr %59, align 1
  %65 = zext i8 %64 to i32
  %66 = shl nuw nsw i32 %65, 8
  %67 = or disjoint i32 %66, %62
  store i32 %67, ptr %.05875, align 4
  %68 = getelementptr inbounds nuw i8, ptr %.05974, i64 4
  %69 = load i8, ptr %63, align 1
  %70 = zext i8 %69 to i32
  %71 = or disjoint i32 %67, %70
  br label %73

.thread72:                                        ; preds = %35, %7, %24, %56, %53
  %72 = getelementptr inbounds nuw i8, ptr %.05974, i64 1
  br label %73

73:                                               ; preds = %25, %57, %.thread72, %39, %12
  %.sink82 = phi i32 [ %34, %25 ], [ %71, %57 ], [ %6, %.thread72 ], [ %50, %39 ], [ %18, %12 ]
  %.sink = phi i32 [ -3, %25 ], [ -4, %57 ], [ -1, %.thread72 ], [ -3, %39 ], [ -2, %12 ]
  %.160 = phi ptr [ %31, %25 ], [ %68, %57 ], [ %72, %.thread72 ], [ %47, %39 ], [ %15, %12 ]
  store i32 %.sink82, ptr %.05875, align 4
  %74 = add nsw i32 %.05776, %.sink
  %75 = getelementptr inbounds nuw i8, ptr %.05875, i64 4
  %76 = add i32 %.077, 1
  %77 = icmp sgt i32 %74, 0
  br i1 %77, label %.lr.ph, label %.critedge, !llvm.loop !18

.critedge:                                        ; preds = %.lr.ph, %73, %3
  %.058.lcssa = phi ptr [ %1, %3 ], [ %75, %73 ], [ %.05875, %.lr.ph ]
  %.0.lcssa = phi i32 [ 0, %3 ], [ %76, %73 ], [ %.077, %.lr.ph ]
  store i32 0, ptr %.058.lcssa, align 4
  ret i32 %.0.lcssa
}